; Function Attrs: mustprogress uwtable
define noundef i64 @_ZNK7mitsuba14RadicalInverse4baseEm(ptr nocapture noundef nonnull readonly align 8 dereferenceable(68) %0, i64 noundef %1) local_unnamed_addr #0 align 2 personality ptr @__gxx_personality_v0 {
  %3 = alloca %"class.std::__1::basic_string", align 8
  %4 = icmp ugt i64 %1, 1023
  br i1 %4, label %5, label %10

5:                                                ; preds = %2
  %6 = load ptr, ptr @_ZN7mitsuba14RadicalInverse7m_classE, align 8
  call void @_ZN10tinyformat6formatIJEEENSt3__112basic_stringIcNS1_11char_traitsIcEENS1_9allocatorIcEEEEPKcDpRKT_(ptr dead_on_unwind nonnull writable sret(%"class.std::__1::basic_string") align 8 %3, ptr noundef nonnull @.str.6)
  invoke void @_ZN7mitsuba6detail5ThrowENS_8LogLevelEPKNS_5ClassEPKciRKNSt3__112basic_stringIcNS7_11char_traitsIcEENS7_9allocatorIcEEEE(i32 noundef 400, ptr noundef %6, ptr noundef nonnull @.str, i32 noundef 123, ptr noundef nonnull align 8 dereferenceable(24) %3) #21
          to label %7 unwind label %8

7:                                                ; preds = %5
  unreachable

8:                                                ; preds = %5
  %9 = landingpad { ptr, i32 }
          cleanup
  call void @_ZNSt3__112basic_stringIcNS_11char_traitsIcEENS_9allocatorIcEEED1Ev(ptr noundef nonnull align 8 dereferenceable(24) %3) #18
  resume { ptr, i32 } %9

10:                                               ; preds = %2
  %11 = getelementptr inbounds i8, ptr %0, i64 24
  %12 = load ptr, ptr %11, align 8
  %13 = getelementptr inbounds %"struct.mitsuba::RadicalInverse::PrimeBase", ptr %12, i64 %1, i32 1
  %14 = load i16, ptr %13, align 1
  %15 = zext i16 %14 to i64
  ret i64 %15
}